; Function Attrs: mustprogress uwtable
define internal void @_ZNK12_GLOBAL__N_116itanium_demangle15PixelVectorType9printLeftERNS0_12OutputBufferE(ptr noundef nonnull readonly align 8 captures(none) dereferenceable(24) %0, ptr noundef nonnull align 8 dereferenceable(44) %1) unnamed_addr #2 align 2 {
  %3 = getelementptr inbounds nuw i8, ptr %1, i64 16
  %4 = load i64, ptr %3, align 8, !tbaa !224
  %5 = add i64 %4, 13
  %6 = getelementptr inbounds nuw i8, ptr %1, i64 24
  %7 = load i64, ptr %6, align 8, !tbaa !225
  %8 = icmp ugt i64 %5, %7
  br i1 %8, label %9, label %._ZN12_GLOBAL__N_116itanium_demangle12OutputBuffer4growEm.exit_crit_edge.i

._ZN12_GLOBAL__N_116itanium_demangle12OutputBuffer4growEm.exit_crit_edge.i: ; preds = %2
  %.phi.trans.insert.i = getelementptr inbounds nuw i8, ptr %1, i64 8
  %.pre.i = load ptr, ptr %.phi.trans.insert.i, align 8, !tbaa !222
  br label %_ZN12_GLOBAL__N_116itanium_demangle12OutputBuffer4growEm.exit.i

9:                                                ; preds = %2
  %10 = add i64 %4, 1005
  %11 = shl i64 %7, 1
  %spec.select.i.i = tail call i64 @llvm.umax.i64(i64 %11, i64 %10)
  store i64 %spec.select.i.i, ptr %6, align 8, !tbaa !225
  %12 = getelementptr inbounds nuw i8, ptr %1, i64 8
  %13 = load ptr, ptr %12, align 8, !tbaa !222
  %14 = tail call ptr @realloc(ptr noundef %13, i64 noundef %spec.select.i.i) #34
  store ptr %14, ptr %12, align 8, !tbaa !222
  %15 = icmp eq ptr %14, null
  br i1 %15, label %16, label %._ZN12_GLOBAL__N_116itanium_demangle12OutputBuffer4growEm.exit_crit_edge4.i

._ZN12_GLOBAL__N_116itanium_demangle12OutputBuffer4growEm.exit_crit_edge4.i: ; preds = %9
  %.pre5.i = load i64, ptr %3, align 8, !tbaa !224
  br label %_ZN12_GLOBAL__N_116itanium_demangle12OutputBuffer4growEm.exit.i

16:                                               ; preds = %9
  tail call void @abort() #33
  unreachable

_ZN12_GLOBAL__N_116itanium_demangle12OutputBuffer4growEm.exit.i: ; preds = %._ZN12_GLOBAL__N_116itanium_demangle12OutputBuffer4growEm.exit_crit_edge4.i, %._ZN12_GLOBAL__N_116itanium_demangle12OutputBuffer4growEm.exit_crit_edge.i
  %17 = phi i64 [ %4, %._ZN12_GLOBAL__N_116itanium_demangle12OutputBuffer4growEm.exit_crit_edge.i ], [ %.pre5.i, %._ZN12_GLOBAL__N_116itanium_demangle12OutputBuffer4growEm.exit_crit_edge4.i ]
  %18 = phi ptr [ %.pre.i, %._ZN12_GLOBAL__N_116itanium_demangle12OutputBuffer4growEm.exit_crit_edge.i ], [ %14, %._ZN12_GLOBAL__N_116itanium_demangle12OutputBuffer4growEm.exit_crit_edge4.i ]
  %19 = getelementptr inbounds nuw i8, ptr %18, i64 %17
  tail call void @llvm.memcpy.p0.p0.i64(ptr noundef nonnull align 1 dereferenceable(13) %19, ptr noundef nonnull readonly align 1 dereferenceable(13) @.str.416, i64 13, i1 false)
  %20 = load i64, ptr %3, align 8, !tbaa !224
  %21 = add i64 %20, 13
  store i64 %21, ptr %3, align 8, !tbaa !224
  %22 = getelementptr inbounds nuw i8, ptr %0, i64 16
  %23 = load ptr, ptr %22, align 8, !tbaa !307
  %24 = load ptr, ptr %1, align 8, !tbaa !214
  %25 = getelementptr inbounds nuw i8, ptr %24, i64 16
  %26 = load ptr, ptr %25, align 8
  tail call void %26(ptr noundef nonnull align 8 dereferenceable(44) %1, ptr noundef nonnull align 8 dereferenceable(11) %23)
  %27 = getelementptr inbounds nuw i8, ptr %23, i64 9
  %28 = load i16, ptr %27, align 1
  %.mask3.i = and i16 %28, 192
  %.not.i4 = icmp eq i16 %.mask3.i, 64
  br i1 %.not.i4, label %_ZNK12_GLOBAL__N_116itanium_demangle4Node5printERNS0_12OutputBufferE.exit, label %29

29:                                               ; preds = %_ZN12_GLOBAL__N_116itanium_demangle12OutputBuffer4growEm.exit.i
  %30 = load ptr, ptr %1, align 8, !tbaa !214
  %31 = getelementptr inbounds nuw i8, ptr %30, i64 24
  %32 = load ptr, ptr %31, align 8
  tail call void %32(ptr noundef nonnull align 8 dereferenceable(44) %1, ptr noundef nonnull align 8 dereferenceable(11) %23)
  br label %_ZNK12_GLOBAL__N_116itanium_demangle4Node5printERNS0_12OutputBufferE.exit

_ZNK12_GLOBAL__N_116itanium_demangle4Node5printERNS0_12OutputBufferE.exit: ; preds = %29, %_ZN12_GLOBAL__N_116itanium_demangle12OutputBuffer4growEm.exit.i
  %33 = load i64, ptr %3, align 8, !tbaa !224
  %34 = add i64 %33, 1
  %35 = load i64, ptr %6, align 8, !tbaa !225
  %36 = icmp ugt i64 %34, %35
  br i1 %36, label %37, label %._ZN12_GLOBAL__N_116itanium_demangle12OutputBuffer4growEm.exit_crit_edge.i6

._ZN12_GLOBAL__N_116itanium_demangle12OutputBuffer4growEm.exit_crit_edge.i6: ; preds = %_ZNK12_GLOBAL__N_116itanium_demangle4Node5printERNS0_12OutputBufferE.exit
  %.phi.trans.insert.i7 = getelementptr inbounds nuw i8, ptr %1, i64 8
  %.pre.i8 = load ptr, ptr %.phi.trans.insert.i7, align 8, !tbaa !222
  br label %_ZN12_GLOBAL__N_116itanium_demangle12OutputBuffer4growEm.exit.i9

37:                                               ; preds = %_ZNK12_GLOBAL__N_116itanium_demangle4Node5printERNS0_12OutputBufferE.exit
  %38 = add i64 %33, 993
  %39 = shl i64 %35, 1
  %spec.select.i.i10 = tail call i64 @llvm.umax.i64(i64 %39, i64 %38)
  store i64 %spec.select.i.i10, ptr %6, align 8, !tbaa !225
  %40 = getelementptr inbounds nuw i8, ptr %1, i64 8
  %41 = load ptr, ptr %40, align 8, !tbaa !222
  %42 = tail call ptr @realloc(ptr noundef %41, i64 noundef %spec.select.i.i10) #34
  store ptr %42, ptr %40, align 8, !tbaa !222
  %43 = icmp eq ptr %42, null
  br i1 %43, label %44, label %._ZN12_GLOBAL__N_116itanium_demangle12OutputBuffer4growEm.exit_crit_edge4.i11

._ZN12_GLOBAL__N_116itanium_demangle12OutputBuffer4growEm.exit_crit_edge4.i11: ; preds = %37
  %.pre5.i12 = load i64, ptr %3, align 8, !tbaa !224
  br label %_ZN12_GLOBAL__N_116itanium_demangle12OutputBuffer4growEm.exit.i9

44:                                               ; preds = %37
  tail call void @abort() #33
  unreachable

_ZN12_GLOBAL__N_116itanium_demangle12OutputBuffer4growEm.exit.i9: ; preds = %._ZN12_GLOBAL__N_116itanium_demangle12OutputBuffer4growEm.exit_crit_edge4.i11, %._ZN12_GLOBAL__N_116itanium_demangle12OutputBuffer4growEm.exit_crit_edge.i6
  %45 = phi i64 [ %33, %._ZN12_GLOBAL__N_116itanium_demangle12OutputBuffer4growEm.exit_crit_edge.i6 ], [ %.pre5.i12, %._ZN12_GLOBAL__N_116itanium_demangle12OutputBuffer4growEm.exit_crit_edge4.i11 ]
  %46 = phi ptr [ %.pre.i8, %._ZN12_GLOBAL__N_116itanium_demangle12OutputBuffer4growEm.exit_crit_edge.i6 ], [ %42, %._ZN12_GLOBAL__N_116itanium_demangle12OutputBuffer4growEm.exit_crit_edge4.i11 ]
  %47 = getelementptr inbounds nuw i8, ptr %46, i64 %45
  store i8 93, ptr %47, align 1
  %48 = load i64, ptr %3, align 8, !tbaa !224
  %49 = add i64 %48, 1
  store i64 %49, ptr %3, align 8, !tbaa !224
  ret void
}